; Function Attrs: mustprogress uwtable
define hidden void @_ZN4ncnn9ParamDict3setEiRKNS_3MatE(ptr noundef nonnull readonly align 8 captures(none) dereferenceable(16) %0, i32 noundef %1, ptr noundef nonnull readonly align 8 dereferenceable(72) %2) local_unnamed_addr #1 align 2 {
  %4 = getelementptr inbounds nuw i8, ptr %0, i64 8
  %5 = load ptr, ptr %4, align 8, !tbaa !21
  %6 = sext i32 %1 to i64
  %7 = getelementptr inbounds [32 x %struct.anon], ptr %5, i64 0, i64 %6
  store i32 4, ptr %7, align 8, !tbaa !24
  %8 = getelementptr inbounds [32 x %struct.anon], ptr %5, i64 0, i64 %6, i32 2
  %9 = icmp eq ptr %8, %2
  br i1 %9, label %_ZN4ncnn3MataSERKS0_.exit, label %10

10:                                               ; preds = %3
  %11 = getelementptr inbounds nuw i8, ptr %2, i64 8
  %12 = load ptr, ptr %11, align 8, !tbaa !26
  %.not.i = icmp eq ptr %12, null
  br i1 %.not.i, label %15, label %13

13:                                               ; preds = %10
  %14 = atomicrmw add ptr %12, i32 1 acq_rel, align 4
  br label %15

15:                                               ; preds = %13, %10
  %16 = getelementptr inbounds nuw i8, ptr %8, i64 8
  %17 = load ptr, ptr %16, align 8, !tbaa !26
  %.not.i.i = icmp eq ptr %17, null
  br i1 %.not.i.i, label %_ZN4ncnn3Mat7releaseEv.exit.i, label %18

18:                                               ; preds = %15
  %19 = atomicrmw add ptr %17, i32 -1 acq_rel, align 4
  %20 = icmp eq i32 %19, 1
  br i1 %20, label %21, label %_ZN4ncnn3Mat7releaseEv.exit.i

21:                                               ; preds = %18
  %22 = getelementptr inbounds nuw i8, ptr %8, i64 32
  %23 = load ptr, ptr %22, align 8, !tbaa !27
  %.not3.i.i = icmp eq ptr %23, null
  %24 = load ptr, ptr %8, align 8, !tbaa !28
  br i1 %.not3.i.i, label %29, label %25

25:                                               ; preds = %21
  %26 = load ptr, ptr %23, align 8, !tbaa !4
  %27 = getelementptr inbounds nuw i8, ptr %26, i64 24
  %28 = load ptr, ptr %27, align 8
  tail call void %28(ptr noundef nonnull align 8 dereferenceable(8) %23, ptr noundef %24)
  br label %_ZN4ncnn3Mat7releaseEv.exit.i

29:                                               ; preds = %21
  %.not.i18.i = icmp eq ptr %24, null
  br i1 %.not.i18.i, label %_ZN4ncnn3Mat7releaseEv.exit.i, label %30

30:                                               ; preds = %29
  tail call void @free(ptr noundef nonnull %24) #22
  br label %_ZN4ncnn3Mat7releaseEv.exit.i

_ZN4ncnn3Mat7releaseEv.exit.i:                    ; preds = %29, %30, %25, %18, %15
  %31 = getelementptr inbounds nuw i8, ptr %8, i64 16
  %32 = getelementptr inbounds nuw i8, ptr %8, i64 24
  %33 = getelementptr inbounds nuw i8, ptr %8, i64 40
  %34 = getelementptr inbounds nuw i8, ptr %8, i64 44
  %35 = getelementptr inbounds nuw i8, ptr %8, i64 48
  %36 = getelementptr inbounds nuw i8, ptr %8, i64 52
  %37 = getelementptr inbounds nuw i8, ptr %8, i64 56
  %38 = getelementptr inbounds nuw i8, ptr %8, i64 64
  store i64 0, ptr %38, align 8, !tbaa !7
  tail call void @llvm.memset.p0.i64(ptr noundef nonnull align 8 dereferenceable(28) %8, i8 0, i64 28, i1 false)
  tail call void @llvm.memset.p0.i64(ptr noundef nonnull align 8 dereferenceable(20) %33, i8 0, i64 20, i1 false)
  %39 = load ptr, ptr %2, align 8, !tbaa !28
  store ptr %39, ptr %8, align 8, !tbaa !28
  %40 = load ptr, ptr %11, align 8, !tbaa !26
  store ptr %40, ptr %16, align 8, !tbaa !26
  %41 = getelementptr inbounds nuw i8, ptr %2, i64 16
  %42 = load i64, ptr %41, align 8, !tbaa !32
  store i64 %42, ptr %31, align 8, !tbaa !32
  %43 = getelementptr inbounds nuw i8, ptr %2, i64 24
  %44 = load i32, ptr %43, align 8, !tbaa !33
  store i32 %44, ptr %32, align 8, !tbaa !33
  %45 = getelementptr inbounds nuw i8, ptr %2, i64 32
  %46 = load ptr, ptr %45, align 8, !tbaa !27
  %47 = getelementptr inbounds nuw i8, ptr %8, i64 32
  store ptr %46, ptr %47, align 8, !tbaa !27
  %48 = getelementptr inbounds nuw i8, ptr %2, i64 40
  %49 = load i32, ptr %48, align 8, !tbaa !34
  store i32 %49, ptr %33, align 8, !tbaa !34
  %50 = getelementptr inbounds nuw i8, ptr %2, i64 44
  %51 = load i32, ptr %50, align 4, !tbaa !35
  store i32 %51, ptr %34, align 4, !tbaa !35
  %52 = getelementptr inbounds nuw i8, ptr %2, i64 48
  %53 = load i32, ptr %52, align 8, !tbaa !36
  store i32 %53, ptr %35, align 8, !tbaa !36
  %54 = getelementptr inbounds nuw i8, ptr %2, i64 52
  %55 = load i32, ptr %54, align 4, !tbaa !37
  store i32 %55, ptr %36, align 4, !tbaa !37
  %56 = getelementptr inbounds nuw i8, ptr %2, i64 56
  %57 = load i32, ptr %56, align 8, !tbaa !38
  store i32 %57, ptr %37, align 8, !tbaa !38
  %58 = getelementptr inbounds nuw i8, ptr %2, i64 64
  %59 = load i64, ptr %58, align 8, !tbaa !7
  store i64 %59, ptr %38, align 8, !tbaa !7
  br label %_ZN4ncnn3MataSERKS0_.exit

_ZN4ncnn3MataSERKS0_.exit:                        ; preds = %3, %_ZN4ncnn3Mat7releaseEv.exit.i
  ret void
}